; Function Attrs: nounwind uwtable
define hidden noalias ptr @mi_new_aligned_nothrow(i64 noundef %0, i64 noundef %1) local_unnamed_addr #3 {
  %3 = tail call noalias ptr @mi_malloc_aligned(i64 noundef %0, i64 noundef %1) #19
  %4 = icmp eq ptr %3, null
  br i1 %4, label %.lr.ph, label %.critedge

.lr.ph:                                           ; preds = %2, %mi_try_new_handler.exit
  %5 = tail call ptr @_ZSt15get_new_handlerv() #20
  %.not = icmp eq ptr %5, null
  br i1 %.not, label %mi_try_new_handler.exit.thread, label %mi_try_new_handler.exit

mi_try_new_handler.exit.thread:                   ; preds = %.lr.ph
  tail call void (i32, ptr, ...) @_mi_error_message(i32 noundef 12, ptr noundef nonnull @.str.4) #19
  br label %.critedge

mi_try_new_handler.exit:                          ; preds = %.lr.ph
  tail call void %5() #19
  %6 = tail call noalias ptr @mi_malloc_aligned(i64 noundef %0, i64 noundef %1) #19
  %7 = icmp eq ptr %6, null
  br i1 %7, label %.lr.ph, label %.critedge, !llvm.loop !34

.critedge:                                        ; preds = %mi_try_new_handler.exit, %2, %mi_try_new_handler.exit.thread
  %8 = phi ptr [ null, %mi_try_new_handler.exit.thread ], [ %3, %2 ], [ %6, %mi_try_new_handler.exit ]
  ret ptr %8
}